target datalayout = "e-m:e-p270:32:32-p271:32:32-p272:64:64-i64:64-i128:128-f80:128-n8:16:32:64-S128"
target triple = "x86_64-pc-linux-gnu"

@hf_sysact_istg = internal global i32 0, align 4
@.str.63 = private unnamed_addr constant [9 x i8] c"IStorage\00", align 1
@ett_dcom_istorage = internal global i32 0, align 4

; Function Attrs: null_pointer_is_valid sspstrong uwtable
define internal i32 @dissect_dcom_IStorage(ptr noundef %0, i32 noundef %1, ptr noundef %2, ptr noundef %3, ptr noundef %4, ptr noundef %5, i32 noundef %6) #0 {
  %8 = alloca ptr, align 8
  %9 = alloca i32, align 4
  %10 = alloca ptr, align 8
  %11 = alloca ptr, align 8
  %12 = alloca ptr, align 8
  %13 = alloca ptr, align 8
  %14 = alloca i32, align 4
  %15 = alloca ptr, align 8
  %16 = alloca ptr, align 8
  %17 = alloca i32, align 4
  store ptr %0, ptr %8, align 8
  store i32 %1, ptr %9, align 4
  store ptr %2, ptr %10, align 8
  store ptr %3, ptr %11, align 8
  store ptr %4, ptr %12, align 8
  store ptr %5, ptr %13, align 8
  store i32 %6, ptr %14, align 4
  call void @llvm.lifetime.start.p0(i64 8, ptr %15) #5
  call void @llvm.lifetime.start.p0(i64 8, ptr %16) #5
  call void @llvm.lifetime.start.p0(i64 4, ptr %17) #5
  %18 = load i32, ptr %9, align 4
  store i32 %18, ptr %17, align 4
  %19 = load ptr, ptr %11, align 8
  %20 = load ptr, ptr %8, align 8
  %21 = load i32, ptr %9, align 4
  %22 = load i32, ptr @ett_dcom_istorage, align 4
  %23 = call ptr @proto_tree_add_subtree(ptr noundef %19, ptr noundef %20, i32 noundef %21, i32 noundef 0, i32 noundef %22, ptr noundef %15, ptr noundef @.str.63)
  store ptr %23, ptr %16, align 8
  %24 = load ptr, ptr %8, align 8
  %25 = load i32, ptr %9, align 4
  %26 = load ptr, ptr %10, align 8
  %27 = load ptr, ptr %16, align 8
  %28 = load ptr, ptr %12, align 8
  %29 = load ptr, ptr %13, align 8
  %30 = load i32, ptr @hf_sysact_istg, align 4
  %31 = call i32 @dissect_dcom_OBJREF(ptr noundef %24, i32 noundef %25, ptr noundef %26, ptr noundef %27, ptr noundef %28, ptr noundef %29, i32 noundef %30, ptr noundef null)
  store i32 %31, ptr %9, align 4
  %32 = load ptr, ptr %15, align 8
  %33 = load i32, ptr %9, align 4
  %34 = load i32, ptr %17, align 4
  %35 = sub i32 %33, %34
  call void @proto_item_set_len(ptr noundef %32, i32 noundef %35)
  %36 = load i32, ptr %9, align 4
  call void @llvm.lifetime.end.p0(i64 4, ptr %17) #5
  call void @llvm.lifetime.end.p0(i64 8, ptr %16) #5
  call void @llvm.lifetime.end.p0(i64 8, ptr %15) #5
  ret i32 %36
}