; Function Attrs: null_pointer_is_valid sspstrong uwtable
define internal i32 @dissect_dcom_IStorage(ptr noundef %0, i32 noundef %1, ptr noundef %2, ptr noundef %3, ptr noundef %4, ptr noundef %5, i32 %6) #0 {
  %8 = alloca ptr, align 8
  call void @llvm.lifetime.start.p0(i64 8, ptr nonnull %8) #6
  %9 = load i32, ptr @ett_dcom_istorage, align 4
  %10 = call ptr @proto_tree_add_subtree(ptr noundef %3, ptr noundef %0, i32 noundef %1, i32 noundef 0, i32 noundef %9, ptr noundef nonnull %8, ptr noundef nonnull @.str.63)
  %11 = load i32, ptr @hf_sysact_istg, align 4
  %12 = call i32 @dissect_dcom_OBJREF(ptr noundef %0, i32 noundef %1, ptr noundef %2, ptr noundef %10, ptr noundef %4, ptr noundef %5, i32 noundef %11, ptr noundef null)
  %13 = load ptr, ptr %8, align 8
  %14 = sub i32 %12, %1
  call void @proto_item_set_len(ptr noundef %13, i32 noundef %14)
  call void @llvm.lifetime.end.p0(i64 8, ptr nonnull %8) #6
  ret i32 %12
}